target datalayout = "e-m:e-p270:32:32-p271:32:32-p272:64:64-i64:64-i128:128-f80:128-n8:16:32:64-S128"
target triple = "x86_64-pc-linux-gnu"

%union.EX_STYPE = type { ptr }
%struct.Exnode_s = type { i32, i32, i32, ptr, %union.anon.1, %union.Exdata_u, i32 }
%union.anon.1 = type { ptr }
%union.Exdata_u = type { %struct.anon.5 }
%struct.anon.5 = type { ptr, ptr, ptr, ptr }
%struct.Expr_s = type { ptr, ptr, [10 x ptr], ptr, ptr, ptr, %struct._dtdisc_s, ptr, ptr, ptr, %struct.agxbuf, %union.EX_STYPE, %struct.Exid_s, [512 x i8], ptr, i32, i32, i32, i32, i64, i32, i32 }
%struct._dtdisc_s = type { i32, i32, i32, ptr, ptr, ptr }
%struct.agxbuf = type { %union.anon }
%union.anon = type { %struct.anon }
%struct.anon = type { ptr, i64, i64, [7 x i8], i8 }
%struct.Exid_s = type { %struct._dtlink_s, i64, i64, i64, i64, i64, ptr, ptr, i64, [32 x i8] }
%struct._dtlink_s = type { ptr, %union.anon.0 }
%union.anon.0 = type { ptr }
%struct.anon.3 = type { ptr, ptr, ptr }

; Function Attrs: nounwind uwtable
define ptr @exnewnode(ptr noundef %0, i32 noundef %1, i32 noundef %2, i32 noundef %3, ptr noundef %4, ptr noundef %5) #0 {
  %7 = alloca ptr, align 8
  %8 = alloca i32, align 4
  %9 = alloca i32, align 4
  %10 = alloca i32, align 4
  %11 = alloca ptr, align 8
  %12 = alloca ptr, align 8
  %13 = alloca ptr, align 8
  %14 = alloca %struct.Exnode_s, align 8
  store ptr %0, ptr %7, align 8
  store i32 %1, ptr %8, align 4
  store i32 %2, ptr %9, align 4
  store i32 %3, ptr %10, align 4
  store ptr %4, ptr %11, align 8
  store ptr %5, ptr %12, align 8
  %15 = load ptr, ptr %7, align 8
  %16 = getelementptr inbounds %struct.Expr_s, ptr %15, i32 0, i32 3
  %17 = load ptr, ptr %16, align 8
  %18 = call ptr @vmalloc(ptr noundef %17, i64 noundef 72)
  store ptr %18, ptr %13, align 8
  %19 = load ptr, ptr %13, align 8
  call void @llvm.memset.p0.i64(ptr align 8 %14, i8 0, i64 72, i1 false)
  call void @llvm.memcpy.p0.p0.i64(ptr align 8 %19, ptr align 8 %14, i64 72, i1 false)
  %20 = load i32, ptr %8, align 4
  %21 = load ptr, ptr %13, align 8
  %22 = getelementptr inbounds %struct.Exnode_s, ptr %21, i32 0, i32 1
  store i32 %20, ptr %22, align 4
  %23 = load i32, ptr %10, align 4
  %24 = load ptr, ptr %13, align 8
  %25 = getelementptr inbounds %struct.Exnode_s, ptr %24, i32 0, i32 0
  store i32 %23, ptr %25, align 8
  %26 = load i32, ptr %9, align 4
  %27 = load ptr, ptr %13, align 8
  %28 = getelementptr inbounds %struct.Exnode_s, ptr %27, i32 0, i32 2
  store i32 %26, ptr %28, align 8
  %29 = load ptr, ptr %13, align 8
  %30 = getelementptr inbounds %struct.Exnode_s, ptr %29, i32 0, i32 3
  store ptr null, ptr %30, align 8
  %31 = load ptr, ptr %11, align 8
  %32 = load ptr, ptr %13, align 8
  %33 = getelementptr inbounds %struct.Exnode_s, ptr %32, i32 0, i32 5
  %34 = getelementptr inbounds %struct.anon.3, ptr %33, i32 0, i32 0
  store ptr %31, ptr %34, align 8
  %35 = load ptr, ptr %12, align 8
  %36 = load ptr, ptr %13, align 8
  %37 = getelementptr inbounds %struct.Exnode_s, ptr %36, i32 0, i32 5
  %38 = getelementptr inbounds %struct.anon.3, ptr %37, i32 0, i32 1
  store ptr %35, ptr %38, align 8
  %39 = load ptr, ptr %13, align 8
  ret ptr %39
}