; Function Attrs: nounwind uwtable
define noundef ptr @exnewnode(ptr noundef readonly captures(none) %0, i32 noundef %1, i32 noundef %2, i32 noundef %3, ptr noundef %4, ptr noundef %5) local_unnamed_addr #0 {
  %7 = getelementptr inbounds nuw i8, ptr %0, i64 96
  %8 = load ptr, ptr %7, align 8
  %9 = tail call ptr @vmalloc(ptr noundef %8, i64 noundef 72) #22
  %10 = getelementptr inbounds nuw i8, ptr %9, i64 8
  tail call void @llvm.memset.p0.i64(ptr noundef nonnull align 8 dereferenceable(64) %10, i8 0, i64 64, i1 false)
  %11 = getelementptr inbounds nuw i8, ptr %9, i64 4
  store i32 %1, ptr %11, align 4
  store i32 %3, ptr %9, align 8
  %12 = getelementptr inbounds nuw i8, ptr %9, i64 8
  store i32 %2, ptr %12, align 8
  %13 = getelementptr inbounds nuw i8, ptr %9, i64 32
  store ptr %4, ptr %13, align 8
  %14 = getelementptr inbounds nuw i8, ptr %9, i64 40
  store ptr %5, ptr %14, align 8
  ret ptr %9
}